
Task1.elf:     file format elf32-avr

Sections:
Idx Name          Size      VMA       LMA       File off  Algn
  0 .text         00000184  00000000  00000000  00000074  2**1
                  CONTENTS, ALLOC, LOAD, READONLY, CODE
  1 .data         00000000  00800060  00000184  000001f8  2**0
                  CONTENTS, ALLOC, LOAD, DATA
  2 .comment      00000030  00000000  00000000  000001f8  2**0
                  CONTENTS, READONLY
  3 .note.gnu.avr.deviceinfo 0000003c  00000000  00000000  00000228  2**2
                  CONTENTS, READONLY
  4 .debug_aranges 00000028  00000000  00000000  00000264  2**0
                  CONTENTS, READONLY, DEBUGGING
  5 .debug_info   000005ca  00000000  00000000  0000028c  2**0
                  CONTENTS, READONLY, DEBUGGING
  6 .debug_abbrev 0000053e  00000000  00000000  00000856  2**0
                  CONTENTS, READONLY, DEBUGGING
  7 .debug_line   00000176  00000000  00000000  00000d94  2**0
                  CONTENTS, READONLY, DEBUGGING
  8 .debug_frame  00000054  00000000  00000000  00000f0c  2**2
                  CONTENTS, READONLY, DEBUGGING
  9 .debug_str    000002ce  00000000  00000000  00000f60  2**0
                  CONTENTS, READONLY, DEBUGGING
 10 .debug_loc    00000090  00000000  00000000  0000122e  2**0
                  CONTENTS, READONLY, DEBUGGING
 11 .debug_ranges 00000018  00000000  00000000  000012be  2**0
                  CONTENTS, READONLY, DEBUGGING

Disassembly of section .text:

00000000 <__vectors>:
   0:	0c 94 2a 00 	jmp	0x54	; 0x54 <__ctors_end>
   4:	0c 94 34 00 	jmp	0x68	; 0x68 <__bad_interrupt>
   8:	0c 94 34 00 	jmp	0x68	; 0x68 <__bad_interrupt>
   c:	0c 94 34 00 	jmp	0x68	; 0x68 <__bad_interrupt>
  10:	0c 94 34 00 	jmp	0x68	; 0x68 <__bad_interrupt>
  14:	0c 94 34 00 	jmp	0x68	; 0x68 <__bad_interrupt>
  18:	0c 94 34 00 	jmp	0x68	; 0x68 <__bad_interrupt>
  1c:	0c 94 34 00 	jmp	0x68	; 0x68 <__bad_interrupt>
  20:	0c 94 34 00 	jmp	0x68	; 0x68 <__bad_interrupt>
  24:	0c 94 34 00 	jmp	0x68	; 0x68 <__bad_interrupt>
  28:	0c 94 34 00 	jmp	0x68	; 0x68 <__bad_interrupt>
  2c:	0c 94 34 00 	jmp	0x68	; 0x68 <__bad_interrupt>
  30:	0c 94 34 00 	jmp	0x68	; 0x68 <__bad_interrupt>
  34:	0c 94 34 00 	jmp	0x68	; 0x68 <__bad_interrupt>
  38:	0c 94 34 00 	jmp	0x68	; 0x68 <__bad_interrupt>
  3c:	0c 94 34 00 	jmp	0x68	; 0x68 <__bad_interrupt>
  40:	0c 94 34 00 	jmp	0x68	; 0x68 <__bad_interrupt>
  44:	0c 94 34 00 	jmp	0x68	; 0x68 <__bad_interrupt>
  48:	0c 94 34 00 	jmp	0x68	; 0x68 <__bad_interrupt>
  4c:	0c 94 34 00 	jmp	0x68	; 0x68 <__bad_interrupt>
  50:	0c 94 34 00 	jmp	0x68	; 0x68 <__bad_interrupt>

00000054 <__ctors_end>:
  54:	11 24       	eor	r1, r1
  56:	1f be       	out	0x3f, r1	; 63
  58:	cf e5       	ldi	r28, 0x5F	; 95
  5a:	d8 e0       	ldi	r29, 0x08	; 8
  5c:	de bf       	out	0x3e, r29	; 62
  5e:	cd bf       	out	0x3d, r28	; 61
  60:	0e 94 67 00 	call	0xce	; 0xce <main>
  64:	0c 94 c0 00 	jmp	0x180	; 0x180 <_exit>

00000068 <__bad_interrupt>:
  68:	0c 94 00 00 	jmp	0	; 0x0 <__vectors>

0000006c <delay>:
#define CLEAR_BIT(reg,bit) 		(reg &= ~(1<<bit))
#define TOGGLE_BIT(reg,bit) 	(reg ^= (1<<bit))
#define READ_BIT(reg,bit) 		((reg>>bit) & 1)

void delay (int time)
{
  6c:	cf 93       	push	r28
  6e:	df 93       	push	r29
  70:	00 d0       	rcall	.+0      	; 0x72 <delay+0x6>
  72:	00 d0       	rcall	.+0      	; 0x74 <delay+0x8>
  74:	00 d0       	rcall	.+0      	; 0x76 <delay+0xa>
  76:	cd b7       	in	r28, 0x3d	; 61
  78:	de b7       	in	r29, 0x3e	; 62
  7a:	9e 83       	std	Y+6, r25	; 0x06
  7c:	8d 83       	std	Y+5, r24	; 0x05
	volatile int i,j ;
	for (i=0;i<time;i++)
  7e:	1a 82       	std	Y+2, r1	; 0x02
  80:	19 82       	std	Y+1, r1	; 0x01
  82:	14 c0       	rjmp	.+40     	; 0xac <delay+0x40>
	{
		for(j=0;j<time;j++);
  84:	1c 82       	std	Y+4, r1	; 0x04
  86:	1b 82       	std	Y+3, r1	; 0x03
  88:	05 c0       	rjmp	.+10     	; 0x94 <delay+0x28>
  8a:	8b 81       	ldd	r24, Y+3	; 0x03
  8c:	9c 81       	ldd	r25, Y+4	; 0x04
  8e:	01 96       	adiw	r24, 0x01	; 1
  90:	9c 83       	std	Y+4, r25	; 0x04
  92:	8b 83       	std	Y+3, r24	; 0x03
  94:	2b 81       	ldd	r18, Y+3	; 0x03
  96:	3c 81       	ldd	r19, Y+4	; 0x04
  98:	8d 81       	ldd	r24, Y+5	; 0x05
  9a:	9e 81       	ldd	r25, Y+6	; 0x06
  9c:	28 17       	cp	r18, r24
  9e:	39 07       	cpc	r19, r25
  a0:	a4 f3       	brlt	.-24     	; 0x8a <delay+0x1e>
#define READ_BIT(reg,bit) 		((reg>>bit) & 1)

void delay (int time)
{
	volatile int i,j ;
	for (i=0;i<time;i++)
  a2:	89 81       	ldd	r24, Y+1	; 0x01
  a4:	9a 81       	ldd	r25, Y+2	; 0x02
  a6:	01 96       	adiw	r24, 0x01	; 1
  a8:	9a 83       	std	Y+2, r25	; 0x02
  aa:	89 83       	std	Y+1, r24	; 0x01
  ac:	29 81       	ldd	r18, Y+1	; 0x01
  ae:	3a 81       	ldd	r19, Y+2	; 0x02
  b0:	8d 81       	ldd	r24, Y+5	; 0x05
  b2:	9e 81       	ldd	r25, Y+6	; 0x06
  b4:	28 17       	cp	r18, r24
  b6:	39 07       	cpc	r19, r25
  b8:	2c f3       	brlt	.-54     	; 0x84 <delay+0x18>
	{
		for(j=0;j<time;j++);
	}
}
  ba:	00 00       	nop
  bc:	26 96       	adiw	r28, 0x06	; 6
  be:	0f b6       	in	r0, 0x3f	; 63
  c0:	f8 94       	cli
  c2:	de bf       	out	0x3e, r29	; 62
  c4:	0f be       	out	0x3f, r0	; 63
  c6:	cd bf       	out	0x3d, r28	; 61
  c8:	df 91       	pop	r29
  ca:	cf 91       	pop	r28
  cc:	08 95       	ret

000000ce <main>:
#include "MemMap.h"
#include "Utilities.h"


int main(void)
{
  ce:	cf 93       	push	r28
  d0:	df 93       	push	r29
  d2:	00 d0       	rcall	.+0      	; 0xd4 <main+0x6>
  d4:	cd b7       	in	r28, 0x3d	; 61
  d6:	de b7       	in	r29, 0x3e	; 62
	DDRA = 0xFF;
  d8:	8a e3       	ldi	r24, 0x3A	; 58
  da:	90 e0       	ldi	r25, 0x00	; 0
  dc:	2f ef       	ldi	r18, 0xFF	; 255
  de:	fc 01       	movw	r30, r24
  e0:	20 83       	st	Z, r18

	while(1)
	{
		volatile int i;
		for(i=0;i<=7;i++)
  e2:	1a 82       	std	Y+2, r1	; 0x02
  e4:	19 82       	std	Y+1, r1	; 0x01
  e6:	1e c0       	rjmp	.+60     	; 0x124 <main+0x56>
		{
			SET_BIT(PORTA,i);
  e8:	29 81       	ldd	r18, Y+1	; 0x01
  ea:	3a 81       	ldd	r19, Y+2	; 0x02
  ec:	81 e0       	ldi	r24, 0x01	; 1
  ee:	90 e0       	ldi	r25, 0x00	; 0
  f0:	ac 01       	movw	r20, r24
  f2:	02 c0       	rjmp	.+4      	; 0xf8 <main+0x2a>
  f4:	44 0f       	add	r20, r20
  f6:	55 1f       	adc	r21, r21
  f8:	2a 95       	dec	r18
  fa:	e2 f7       	brpl	.-8      	; 0xf4 <main+0x26>
  fc:	8b e3       	ldi	r24, 0x3B	; 59
  fe:	90 e0       	ldi	r25, 0x00	; 0
 100:	2b e3       	ldi	r18, 0x3B	; 59
 102:	30 e0       	ldi	r19, 0x00	; 0
 104:	f9 01       	movw	r30, r18
 106:	20 81       	ld	r18, Z
 108:	32 2f       	mov	r19, r18
 10a:	24 2f       	mov	r18, r20
 10c:	23 2b       	or	r18, r19
 10e:	fc 01       	movw	r30, r24
 110:	20 83       	st	Z, r18
			delay(200);
 112:	88 ec       	ldi	r24, 0xC8	; 200
 114:	90 e0       	ldi	r25, 0x00	; 0
 116:	0e 94 36 00 	call	0x6c	; 0x6c <delay>
	DDRA = 0xFF;

	while(1)
	{
		volatile int i;
		for(i=0;i<=7;i++)
 11a:	89 81       	ldd	r24, Y+1	; 0x01
 11c:	9a 81       	ldd	r25, Y+2	; 0x02
 11e:	01 96       	adiw	r24, 0x01	; 1
 120:	9a 83       	std	Y+2, r25	; 0x02
 122:	89 83       	std	Y+1, r24	; 0x01
 124:	89 81       	ldd	r24, Y+1	; 0x01
 126:	9a 81       	ldd	r25, Y+2	; 0x02
 128:	08 97       	sbiw	r24, 0x08	; 8
 12a:	f4 f2       	brlt	.-68     	; 0xe8 <main+0x1a>
		{
			SET_BIT(PORTA,i);
			delay(200);
		}
		for(i=7;i>=0;i--)
 12c:	87 e0       	ldi	r24, 0x07	; 7
 12e:	90 e0       	ldi	r25, 0x00	; 0
 130:	9a 83       	std	Y+2, r25	; 0x02
 132:	89 83       	std	Y+1, r24	; 0x01
 134:	20 c0       	rjmp	.+64     	; 0x176 <main+0xa8>
		{
			CLEAR_BIT(PORTA,i);
 136:	29 81       	ldd	r18, Y+1	; 0x01
 138:	3a 81       	ldd	r19, Y+2	; 0x02
 13a:	81 e0       	ldi	r24, 0x01	; 1
 13c:	90 e0       	ldi	r25, 0x00	; 0
 13e:	02 c0       	rjmp	.+4      	; 0x144 <main+0x76>
 140:	88 0f       	add	r24, r24
 142:	99 1f       	adc	r25, r25
 144:	2a 95       	dec	r18
 146:	e2 f7       	brpl	.-8      	; 0x140 <main+0x72>
 148:	ac 01       	movw	r20, r24
 14a:	40 95       	com	r20
 14c:	50 95       	com	r21
 14e:	8b e3       	ldi	r24, 0x3B	; 59
 150:	90 e0       	ldi	r25, 0x00	; 0
 152:	2b e3       	ldi	r18, 0x3B	; 59
 154:	30 e0       	ldi	r19, 0x00	; 0
 156:	f9 01       	movw	r30, r18
 158:	20 81       	ld	r18, Z
 15a:	32 2f       	mov	r19, r18
 15c:	24 2f       	mov	r18, r20
 15e:	23 23       	and	r18, r19
 160:	fc 01       	movw	r30, r24
 162:	20 83       	st	Z, r18
			delay(200);
 164:	88 ec       	ldi	r24, 0xC8	; 200
 166:	90 e0       	ldi	r25, 0x00	; 0
 168:	0e 94 36 00 	call	0x6c	; 0x6c <delay>
		for(i=0;i<=7;i++)
		{
			SET_BIT(PORTA,i);
			delay(200);
		}
		for(i=7;i>=0;i--)
 16c:	89 81       	ldd	r24, Y+1	; 0x01
 16e:	9a 81       	ldd	r25, Y+2	; 0x02
 170:	01 97       	sbiw	r24, 0x01	; 1
 172:	9a 83       	std	Y+2, r25	; 0x02
 174:	89 83       	std	Y+1, r24	; 0x01
 176:	89 81       	ldd	r24, Y+1	; 0x01
 178:	9a 81       	ldd	r25, Y+2	; 0x02
 17a:	99 23       	and	r25, r25
 17c:	e4 f6       	brge	.-72     	; 0x136 <main+0x68>
			CLEAR_BIT(PORTA,i);
			delay(200);
		}


	}
 17e:	b1 cf       	rjmp	.-158    	; 0xe2 <main+0x14>

00000180 <_exit>:
 180:	f8 94       	cli

00000182 <__stop_program>:
 182:	ff cf       	rjmp	.-2      	; 0x182 <__stop_program>
